target datalayout = "e-m:e-p270:32:32-p271:32:32-p272:64:64-i64:64-i128:128-f80:128-n8:16:32:64-S128"
target triple = "x86_64-pc-linux-gnu"

; Function Attrs: nounwind uwtable
define dso_local void @KeccakP1600_ExtractAndAddBytesInLane(ptr noundef %0, i32 noundef %1, ptr noundef %2, ptr noundef %3, i32 noundef %4, i32 noundef %5) #0 {
  %7 = alloca ptr, align 8
  %8 = alloca i32, align 4
  %9 = alloca ptr, align 8
  %10 = alloca ptr, align 8
  %11 = alloca i32, align 4
  %12 = alloca i32, align 4
  %13 = alloca i64, align 8
  %14 = alloca i32, align 4
  %15 = alloca [1 x i64], align 8
  store ptr %0, ptr %7, align 8
  store i32 %1, ptr %8, align 4
  store ptr %2, ptr %9, align 8
  store ptr %3, ptr %10, align 8
  store i32 %4, ptr %11, align 4
  store i32 %5, ptr %12, align 4
  call void @llvm.lifetime.start.p0(i64 8, ptr %13) #4
  %16 = load ptr, ptr %7, align 8
  %17 = load i32, ptr %8, align 4
  %18 = zext i32 %17 to i64
  %19 = getelementptr inbounds nuw i64, ptr %16, i64 %18
  %20 = load i64, ptr %19, align 8
  store i64 %20, ptr %13, align 8
  call void @llvm.lifetime.start.p0(i64 4, ptr %14) #4
  call void @llvm.lifetime.start.p0(i64 8, ptr %15) #4
  %21 = load i64, ptr %13, align 8
  %22 = getelementptr inbounds [1 x i64], ptr %15, i64 0, i64 0
  store i64 %21, ptr %22, align 8
  store i32 0, ptr %14, align 4
  br label %23

23:                                               ; preds = %48, %6
  %24 = load i32, ptr %14, align 4
  %25 = load i32, ptr %12, align 4
  %26 = icmp ult i32 %24, %25
  br i1 %26, label %27, label %51

27:                                               ; preds = %23
  %28 = load ptr, ptr %9, align 8
  %29 = load i32, ptr %14, align 4
  %30 = zext i32 %29 to i64
  %31 = getelementptr inbounds nuw i8, ptr %28, i64 %30
  %32 = load i8, ptr %31, align 1
  %33 = zext i8 %32 to i32
  %34 = getelementptr inbounds [1 x i64], ptr %15, i64 0, i64 0
  %35 = load i32, ptr %11, align 4
  %36 = load i32, ptr %14, align 4
  %37 = add i32 %35, %36
  %38 = zext i32 %37 to i64
  %39 = getelementptr inbounds nuw i8, ptr %34, i64 %38
  %40 = load i8, ptr %39, align 1
  %41 = zext i8 %40 to i32
  %42 = xor i32 %33, %41
  %43 = trunc i32 %42 to i8
  %44 = load ptr, ptr %10, align 8
  %45 = load i32, ptr %14, align 4
  %46 = zext i32 %45 to i64
  %47 = getelementptr inbounds nuw i8, ptr %44, i64 %46
  store i8 %43, ptr %47, align 1
  br label %48

48:                                               ; preds = %27
  %49 = load i32, ptr %14, align 4
  %50 = add i32 %49, 1
  store i32 %50, ptr %14, align 4
  br label %23, !llvm.loop !17

51:                                               ; preds = %23
  call void @llvm.lifetime.end.p0(i64 8, ptr %15) #4
  call void @llvm.lifetime.end.p0(i64 4, ptr %14) #4
  call void @llvm.lifetime.end.p0(i64 8, ptr %13) #4
  ret void
}

; Function Attrs: nounwind uwtable
define dso_local void @KeccakP1600_ExtractAndAddLanes(ptr noundef %0, ptr noundef %1, ptr noundef %2, i32 noundef %3) #0 {
  %5 = alloca ptr, align 8
  %6 = alloca ptr, align 8
  %7 = alloca ptr, align 8
  %8 = alloca i32, align 4
  %9 = alloca i32, align 4
  store ptr %0, ptr %5, align 8
  store ptr %1, ptr %6, align 8
  store ptr %2, ptr %7, align 8
  store i32 %3, ptr %8, align 4
  call void @llvm.lifetime.start.p0(i64 4, ptr %9) #4
  store i32 0, ptr %9, align 4
  br label %10

10:                                               ; preds = %30, %4
  %11 = load i32, ptr %9, align 4
  %12 = load i32, ptr %8, align 4
  %13 = icmp ult i32 %11, %12
  br i1 %13, label %14, label %33

14:                                               ; preds = %10
  %15 = load ptr, ptr %6, align 8
  %16 = load i32, ptr %9, align 4
  %17 = zext i32 %16 to i64
  %18 = getelementptr inbounds nuw i64, ptr %15, i64 %17
  %19 = load i64, ptr %18, align 8
  %20 = load ptr, ptr %5, align 8
  %21 = load i32, ptr %9, align 4
  %22 = zext i32 %21 to i64
  %23 = getelementptr inbounds nuw i64, ptr %20, i64 %22
  %24 = load i64, ptr %23, align 8
  %25 = xor i64 %19, %24
  %26 = load ptr, ptr %7, align 8
  %27 = load i32, ptr %9, align 4
  %28 = zext i32 %27 to i64
  %29 = getelementptr inbounds nuw i64, ptr %26, i64 %28
  store i64 %25, ptr %29, align 8
  br label %30

30:                                               ; preds = %14
  %31 = load i32, ptr %9, align 4
  %32 = add i32 %31, 1
  store i32 %32, ptr %9, align 4
  br label %10, !llvm.loop !18

33:                                               ; preds = %10
  call void @llvm.lifetime.end.p0(i64 4, ptr %9) #4
  ret void
}

; Function Attrs: nounwind uwtable
define dso_local void @KeccakP1600_ExtractAndAddBytes(ptr noundef %0, ptr noundef %1, ptr noundef %2, i32 noundef %3, i32 noundef %4) #0 {
  %6 = alloca ptr, align 8
  %7 = alloca ptr, align 8
  %8 = alloca ptr, align 8
  %9 = alloca i32, align 4
  %10 = alloca i32, align 4
  %11 = alloca i32, align 4
  %12 = alloca i32, align 4
  %13 = alloca i32, align 4
  %14 = alloca ptr, align 8
  %15 = alloca ptr, align 8
  %16 = alloca i32, align 4
  store ptr %0, ptr %6, align 8
  store ptr %1, ptr %7, align 8
  store ptr %2, ptr %8, align 8
  store i32 %3, ptr %9, align 4
  store i32 %4, ptr %10, align 4
  %17 = load i32, ptr %9, align 4
  %18 = icmp eq i32 %17, 0
  br i1 %18, label %19, label %42

19:                                               ; preds = %5
  %20 = load ptr, ptr %6, align 8
  %21 = load ptr, ptr %7, align 8
  %22 = load ptr, ptr %8, align 8
  %23 = load i32, ptr %10, align 4
  %24 = udiv i32 %23, 8
  call void @KeccakP1600_ExtractAndAddLanes(ptr noundef %20, ptr noundef %21, ptr noundef %22, i32 noundef %24)
  %25 = load ptr, ptr %6, align 8
  %26 = load i32, ptr %10, align 4
  %27 = udiv i32 %26, 8
  %28 = load ptr, ptr %7, align 8
  %29 = load i32, ptr %10, align 4
  %30 = udiv i32 %29, 8
  %31 = mul i32 %30, 8
  %32 = zext i32 %31 to i64
  %33 = getelementptr inbounds nuw i8, ptr %28, i64 %32
  %34 = load ptr, ptr %8, align 8
  %35 = load i32, ptr %10, align 4
  %36 = udiv i32 %35, 8
  %37 = mul i32 %36, 8
  %38 = zext i32 %37 to i64
  %39 = getelementptr inbounds nuw i8, ptr %34, i64 %38
  %40 = load i32, ptr %10, align 4
  %41 = urem i32 %40, 8
  call void @KeccakP1600_ExtractAndAddBytesInLane(ptr noundef %25, i32 noundef %27, ptr noundef %33, ptr noundef %39, i32 noundef 0, i32 noundef %41)
  br label %82

42:                                               ; preds = %5
  call void @llvm.lifetime.start.p0(i64 4, ptr %11) #4
  %43 = load i32, ptr %10, align 4
  store i32 %43, ptr %11, align 4
  call void @llvm.lifetime.start.p0(i64 4, ptr %12) #4
  %44 = load i32, ptr %9, align 4
  %45 = udiv i32 %44, 8
  store i32 %45, ptr %12, align 4
  call void @llvm.lifetime.start.p0(i64 4, ptr %13) #4
  %46 = load i32, ptr %9, align 4
  %47 = urem i32 %46, 8
  store i32 %47, ptr %13, align 4
  call void @llvm.lifetime.start.p0(i64 8, ptr %14) #4
  %48 = load ptr, ptr %7, align 8
  store ptr %48, ptr %14, align 8
  call void @llvm.lifetime.start.p0(i64 8, ptr %15) #4
  %49 = load ptr, ptr %8, align 8
  store ptr %49, ptr %15, align 8
  br label %50

50:                                               ; preds = %61, %42
  %51 = load i32, ptr %11, align 4
  %52 = icmp ugt i32 %51, 0
  br i1 %52, label %53, label %81

53:                                               ; preds = %50
  call void @llvm.lifetime.start.p0(i64 4, ptr %16) #4
  %54 = load i32, ptr %13, align 4
  %55 = sub i32 8, %54
  store i32 %55, ptr %16, align 4
  %56 = load i32, ptr %16, align 4
  %57 = load i32, ptr %11, align 4
  %58 = icmp ugt i32 %56, %57
  br i1 %58, label %59, label %61

59:                                               ; preds = %53
  %60 = load i32, ptr %11, align 4
  store i32 %60, ptr %16, align 4
  br label %61

61:                                               ; preds = %59, %53
  %62 = load ptr, ptr %6, align 8
  %63 = load i32, ptr %12, align 4
  %64 = load ptr, ptr %14, align 8
  %65 = load ptr, ptr %15, align 8
  %66 = load i32, ptr %13, align 4
  %67 = load i32, ptr %16, align 4
  call void @KeccakP1600_ExtractAndAddBytesInLane(ptr noundef %62, i32 noundef %63, ptr noundef %64, ptr noundef %65, i32 noundef %66, i32 noundef %67)
  %68 = load i32, ptr %16, align 4
  %69 = load i32, ptr %11, align 4
  %70 = sub i32 %69, %68
  store i32 %70, ptr %11, align 4
  %71 = load i32, ptr %12, align 4
  %72 = add i32 %71, 1
  store i32 %72, ptr %12, align 4
  store i32 0, ptr %13, align 4
  %73 = load i32, ptr %16, align 4
  %74 = load ptr, ptr %14, align 8
  %75 = zext i32 %73 to i64
  %76 = getelementptr inbounds nuw i8, ptr %74, i64 %75
  store ptr %76, ptr %14, align 8
  %77 = load i32, ptr %16, align 4
  %78 = load ptr, ptr %15, align 8
  %79 = zext i32 %77 to i64
  %80 = getelementptr inbounds nuw i8, ptr %78, i64 %79
  store ptr %80, ptr %15, align 8
  call void @llvm.lifetime.end.p0(i64 4, ptr %16) #4
  br label %50, !llvm.loop !19

81:                                               ; preds = %50
  call void @llvm.lifetime.end.p0(i64 8, ptr %15) #4
  call void @llvm.lifetime.end.p0(i64 8, ptr %14) #4
  call void @llvm.lifetime.end.p0(i64 4, ptr %13) #4
  call void @llvm.lifetime.end.p0(i64 4, ptr %12) #4
  call void @llvm.lifetime.end.p0(i64 4, ptr %11) #4
  br label %82

82:                                               ; preds = %81, %19
  ret void
}