; Function Attrs: nofree norecurse nosync nounwind memory(argmem: readwrite) uwtable
define dso_local void @KeccakP1600_ExtractAndAddBytes(ptr noundef readonly captures(none) %0, ptr noundef readonly captures(none) %1, ptr noundef writeonly captures(none) %2, i32 noundef %3, i32 noundef %4) local_unnamed_addr #5 {
  %6 = alloca [1 x i64], align 8
  %7 = alloca [1 x i64], align 8
  %8 = icmp eq i32 %3, 0
  br i1 %8, label %9, label %30

9:                                                ; preds = %5
  %10 = lshr i32 %4, 3
  %.not.i = icmp ult i32 %4, 8
  %.pre = zext nneg i32 %10 to i64
  br i1 %.not.i, label %KeccakP1600_ExtractAndAddLanes.exit, label %.lr.ph.i

.lr.ph.i:                                         ; preds = %9, %.lr.ph.i
  %indvars.iv.i = phi i64 [ %indvars.iv.next.i, %.lr.ph.i ], [ 0, %9 ]
  %11 = getelementptr inbounds nuw i64, ptr %1, i64 %indvars.iv.i
  %12 = load i64, ptr %11, align 8
  %13 = getelementptr inbounds nuw i64, ptr %0, i64 %indvars.iv.i
  %14 = load i64, ptr %13, align 8
  %15 = xor i64 %14, %12
  %16 = getelementptr inbounds nuw i64, ptr %2, i64 %indvars.iv.i
  store i64 %15, ptr %16, align 8
  %indvars.iv.next.i = add nuw nsw i64 %indvars.iv.i, 1
  %exitcond.not.i = icmp eq i64 %indvars.iv.next.i, %.pre
  br i1 %exitcond.not.i, label %KeccakP1600_ExtractAndAddLanes.exit, label %.lr.ph.i, !llvm.loop !18

KeccakP1600_ExtractAndAddLanes.exit:              ; preds = %.lr.ph.i, %9
  %17 = and i32 %4, -8
  %18 = zext i32 %17 to i64
  %19 = getelementptr inbounds nuw i8, ptr %1, i64 %18
  %20 = getelementptr inbounds nuw i8, ptr %2, i64 %18
  %21 = and i32 %4, 7
  %22 = getelementptr inbounds nuw i64, ptr %0, i64 %.pre
  %23 = load i64, ptr %22, align 8
  call void @llvm.lifetime.start.p0(i64 8, ptr nonnull %7) #7
  store i64 %23, ptr %7, align 8
  %.not.i41 = icmp eq i32 %21, 0
  br i1 %.not.i41, label %KeccakP1600_ExtractAndAddBytesInLane.exit, label %.lr.ph.preheader.i42

.lr.ph.preheader.i42:                             ; preds = %KeccakP1600_ExtractAndAddLanes.exit
  %wide.trip.count.i43 = zext nneg i32 %21 to i64
  br label %.lr.ph.i44

.lr.ph.i44:                                       ; preds = %.lr.ph.i44, %.lr.ph.preheader.i42
  %indvars.iv.i45 = phi i64 [ 0, %.lr.ph.preheader.i42 ], [ %indvars.iv.next.i46, %.lr.ph.i44 ]
  %24 = getelementptr inbounds nuw i8, ptr %19, i64 %indvars.iv.i45
  %25 = load i8, ptr %24, align 1
  %26 = getelementptr inbounds nuw i8, ptr %7, i64 %indvars.iv.i45
  %27 = load i8, ptr %26, align 1
  %28 = xor i8 %27, %25
  %29 = getelementptr inbounds nuw i8, ptr %20, i64 %indvars.iv.i45
  store i8 %28, ptr %29, align 1
  %indvars.iv.next.i46 = add nuw nsw i64 %indvars.iv.i45, 1
  %exitcond.not.i47 = icmp eq i64 %indvars.iv.next.i46, %wide.trip.count.i43
  br i1 %exitcond.not.i47, label %KeccakP1600_ExtractAndAddBytesInLane.exit, label %.lr.ph.i44, !llvm.loop !17

KeccakP1600_ExtractAndAddBytesInLane.exit:        ; preds = %.lr.ph.i44, %KeccakP1600_ExtractAndAddLanes.exit
  call void @llvm.lifetime.end.p0(i64 8, ptr nonnull %7) #7
  br label %.loopexit

30:                                               ; preds = %5
  %.not56 = icmp eq i32 %4, 0
  br i1 %.not56, label %.loopexit, label %.lr.ph.preheader.i49.preheader

.lr.ph.preheader.i49.preheader:                   ; preds = %30
  %31 = and i32 %3, 7
  %32 = lshr i32 %3, 3
  br label %.lr.ph.preheader.i49

.lr.ph.preheader.i49:                             ; preds = %.lr.ph.preheader.i49.preheader, %KeccakP1600_ExtractAndAddBytesInLane.exit55
  %.03461 = phi ptr [ %49, %KeccakP1600_ExtractAndAddBytesInLane.exit55 ], [ %2, %.lr.ph.preheader.i49.preheader ]
  %.03560 = phi ptr [ %48, %KeccakP1600_ExtractAndAddBytesInLane.exit55 ], [ %1, %.lr.ph.preheader.i49.preheader ]
  %.03659 = phi i32 [ 0, %KeccakP1600_ExtractAndAddBytesInLane.exit55 ], [ %31, %.lr.ph.preheader.i49.preheader ]
  %.03758 = phi i32 [ %47, %KeccakP1600_ExtractAndAddBytesInLane.exit55 ], [ %32, %.lr.ph.preheader.i49.preheader ]
  %.03857 = phi i32 [ %46, %KeccakP1600_ExtractAndAddBytesInLane.exit55 ], [ %4, %.lr.ph.preheader.i49.preheader ]
  %33 = sub nuw nsw i32 8, %.03659
  %spec.select = tail call i32 @llvm.umin.i32(i32 %33, i32 %.03857)
  %34 = zext i32 %.03758 to i64
  %35 = getelementptr inbounds nuw i64, ptr %0, i64 %34
  %36 = load i64, ptr %35, align 8
  call void @llvm.lifetime.start.p0(i64 8, ptr nonnull %6) #7
  store i64 %36, ptr %6, align 8
  %wide.trip.count.i50 = zext nneg i32 %spec.select to i64
  br label %.lr.ph.i51

.lr.ph.i51:                                       ; preds = %.lr.ph.i51, %.lr.ph.preheader.i49
  %indvars.iv.i52 = phi i64 [ 0, %.lr.ph.preheader.i49 ], [ %indvars.iv.next.i53, %.lr.ph.i51 ]
  %37 = getelementptr inbounds nuw i8, ptr %.03560, i64 %indvars.iv.i52
  %38 = load i8, ptr %37, align 1
  %39 = trunc nuw i64 %indvars.iv.i52 to i32
  %40 = add i32 %.03659, %39
  %41 = zext i32 %40 to i64
  %42 = getelementptr inbounds nuw i8, ptr %6, i64 %41
  %43 = load i8, ptr %42, align 1
  %44 = xor i8 %43, %38
  %45 = getelementptr inbounds nuw i8, ptr %.03461, i64 %indvars.iv.i52
  store i8 %44, ptr %45, align 1
  %indvars.iv.next.i53 = add nuw nsw i64 %indvars.iv.i52, 1
  %exitcond.not.i54 = icmp eq i64 %indvars.iv.next.i53, %wide.trip.count.i50
  br i1 %exitcond.not.i54, label %KeccakP1600_ExtractAndAddBytesInLane.exit55, label %.lr.ph.i51, !llvm.loop !17

KeccakP1600_ExtractAndAddBytesInLane.exit55:      ; preds = %.lr.ph.i51
  call void @llvm.lifetime.end.p0(i64 8, ptr nonnull %6) #7
  %46 = sub i32 %.03857, %spec.select
  %47 = add i32 %.03758, 1
  %48 = getelementptr inbounds nuw i8, ptr %.03560, i64 %wide.trip.count.i50
  %49 = getelementptr inbounds nuw i8, ptr %.03461, i64 %wide.trip.count.i50
  %.not = icmp eq i32 %46, 0
  br i1 %.not, label %.loopexit, label %.lr.ph.preheader.i49, !llvm.loop !19

.loopexit:                                        ; preds = %KeccakP1600_ExtractAndAddBytesInLane.exit55, %30, %KeccakP1600_ExtractAndAddBytesInLane.exit
  ret void
}